; Function Attrs: mustprogress nofree norecurse nosync nounwind willreturn memory(argmem: readwrite) uwtable
define internal void @Vertical_Sweep_Init(ptr noundef captures(none) initializes((200, 208)) %0, i32 noundef %1, i32 %2) #5 {
  %4 = getelementptr inbounds nuw i8, ptr %0, i64 192
  %5 = load ptr, ptr %4, align 8, !tbaa !44
  %6 = getelementptr inbounds nuw i8, ptr %0, i64 184
  %7 = load i32, ptr %6, align 8, !tbaa !43
  %8 = mul nsw i32 %7, %1
  %9 = sext i32 %8 to i64
  %10 = sub nsw i64 0, %9
  %11 = getelementptr inbounds i8, ptr %5, i64 %10
  %12 = getelementptr inbounds nuw i8, ptr %0, i64 200
  store ptr %11, ptr %12, align 8, !tbaa !95
  ret void
}